; Function Attrs: mustprogress uwtable
define void @_ZNK8QuantLib17OptionletStripper8calendarEv(ptr dead_on_unwind noalias writable sret(%"class.QuantLib::Calendar") align 8 %agg.result, ptr nocapture noundef nonnull readonly align 8 dereferenceable(312) %this) unnamed_addr #4 align 2 {
entry:
  %termVolSurface_ = getelementptr inbounds nuw i8, ptr %this, i64 16
  %0 = load ptr, ptr %termVolSurface_, align 8, !tbaa !28
  %cmp.not.i = icmp eq ptr %0, null
  br i1 %cmp.not.i, label %cond.false.i, label %_ZNK5boost10shared_ptrIN8QuantLib22CapFloorTermVolSurfaceEEptEv.exit, !prof !34

cond.false.i:                                     ; preds = %entry
  tail call void @_ZN5boost16assertion_failedEPKcS1_S1_l(ptr noundef nonnull @.str.13, ptr noundef nonnull @__PRETTY_FUNCTION__._ZNK5boost10shared_ptrIN8QuantLib22CapFloorTermVolSurfaceEEptEv, ptr noundef nonnull @.str.14, i64 noundef 784)
  %.pre.i = load ptr, ptr %termVolSurface_, align 8, !tbaa !28
  br label %_ZNK5boost10shared_ptrIN8QuantLib22CapFloorTermVolSurfaceEEptEv.exit

_ZNK5boost10shared_ptrIN8QuantLib22CapFloorTermVolSurfaceEEptEv.exit: ; preds = %entry, %cond.false.i
  %1 = phi ptr [ %0, %entry ], [ %.pre.i, %cond.false.i ]
  %add.ptr = getelementptr inbounds i8, ptr %1, i64 16
  %vtable = load ptr, ptr %add.ptr, align 8, !tbaa !14
  %vfn = getelementptr inbounds i8, ptr %vtable, i64 48
  %2 = load ptr, ptr %vfn, align 8
  tail call void %2(ptr dead_on_unwind writable sret(%"class.QuantLib::Calendar") align 8 %agg.result, ptr noundef nonnull align 8 dereferenceable(64) %add.ptr)
  ret void
}